target datalayout = "e-m:e-p270:32:32-p271:32:32-p272:64:64-i64:64-i128:128-f80:128-n8:16:32:64-S128"
target triple = "x86_64-pc-linux-gnu"

%struct.DdManager = type { %struct.DdNode, ptr, ptr, ptr, ptr, ptr, ptr, ptr, i32, i32, double, double, double, i32, i32, i32, i32, i32, i32, ptr, ptr, %struct.DdSubtable, i32, i32, i32, i32, i32, i32, i32, double, i32, i32, i32, ptr, i64, double, i32, ptr, ptr, ptr, ptr, ptr, ptr, ptr, i32, ptr, ptr, ptr, ptr, ptr, ptr, i32, i32, i32, double, i32, i32, i32, i32, double, double, i32, i32, i32, i32, i32, i32, i32, i32, i32, ptr, ptr, i32, i32, i32, i32, i32, i32, ptr, ptr, ptr, ptr, ptr, ptr, ptr, ptr, i32, i64, i64, i64, i32, i64, i64, double, double, double, double, double, double, i32, ptr, ptr, i64 }
%struct.DdNode = type { i32, i32, ptr, %union.anon, i64 }
%union.anon = type { %struct.DdChildren }
%struct.DdChildren = type { ptr, ptr }
%struct.DdSubtable = type { ptr, i32, i32, i32, i32, i32, i32, i32, i32, i32, i32, i32 }

; Function Attrs: nounwind uwtable
define ptr @Cudd_addNewVar(ptr noundef %0) #0 {
  %2 = alloca ptr, align 8
  %3 = alloca ptr, align 8
  %4 = alloca ptr, align 8
  store ptr %0, ptr %3, align 8
  %5 = load ptr, ptr %3, align 8
  %6 = getelementptr inbounds %struct.DdManager, ptr %5, i32 0, i32 15
  %7 = load i32, ptr %6, align 8
  %8 = icmp uge i32 %7, 2147483646
  br i1 %8, label %9, label %10

9:                                                ; preds = %1
  store ptr null, ptr %2, align 8
  br label %32

10:                                               ; preds = %1
  br label %11

11:                                               ; preds = %25, %10
  %12 = load ptr, ptr %3, align 8
  %13 = getelementptr inbounds %struct.DdManager, ptr %12, i32 0, i32 55
  store i32 0, ptr %13, align 8
  %14 = load ptr, ptr %3, align 8
  %15 = load ptr, ptr %3, align 8
  %16 = getelementptr inbounds %struct.DdManager, ptr %15, i32 0, i32 15
  %17 = load i32, ptr %16, align 8
  %18 = load ptr, ptr %3, align 8
  %19 = getelementptr inbounds %struct.DdManager, ptr %18, i32 0, i32 1
  %20 = load ptr, ptr %19, align 8
  %21 = load ptr, ptr %3, align 8
  %22 = getelementptr inbounds %struct.DdManager, ptr %21, i32 0, i32 2
  %23 = load ptr, ptr %22, align 8
  %24 = call ptr @cuddUniqueInter(ptr noundef %14, i32 noundef %17, ptr noundef %20, ptr noundef %23)
  store ptr %24, ptr %4, align 8
  br label %25

25:                                               ; preds = %11
  %26 = load ptr, ptr %3, align 8
  %27 = getelementptr inbounds %struct.DdManager, ptr %26, i32 0, i32 55
  %28 = load i32, ptr %27, align 8
  %29 = icmp eq i32 %28, 1
  br i1 %29, label %11, label %30, !llvm.loop !4

30:                                               ; preds = %25
  %31 = load ptr, ptr %4, align 8
  store ptr %31, ptr %2, align 8
  br label %32

32:                                               ; preds = %30, %9
  %33 = load ptr, ptr %2, align 8
  ret ptr %33
}