; Function Attrs: nounwind uwtable
define ptr @Cudd_addNewVar(ptr noundef %0) local_unnamed_addr #0 {
  %2 = getelementptr inbounds nuw i8, ptr %0, i64 136
  %3 = load i32, ptr %2, align 8
  %4 = icmp ugt i32 %3, 2147483645
  br i1 %4, label %.loopexit, label %.preheader

.preheader:                                       ; preds = %1
  %5 = getelementptr inbounds nuw i8, ptr %0, i64 448
  %6 = getelementptr inbounds nuw i8, ptr %0, i64 40
  %7 = getelementptr inbounds nuw i8, ptr %0, i64 48
  br label %8

8:                                                ; preds = %.preheader, %8
  store i32 0, ptr %5, align 8
  %9 = load i32, ptr %2, align 8
  %10 = load ptr, ptr %6, align 8
  %11 = load ptr, ptr %7, align 8
  %12 = tail call ptr @cuddUniqueInter(ptr noundef nonnull %0, i32 noundef %9, ptr noundef %10, ptr noundef %11) #20
  %13 = load i32, ptr %5, align 8
  %14 = icmp eq i32 %13, 1
  br i1 %14, label %8, label %.loopexit, !llvm.loop !4

.loopexit:                                        ; preds = %8, %1
  %.0 = phi ptr [ null, %1 ], [ %12, %8 ]
  ret ptr %.0
}